target datalayout = "e-m:e-p270:32:32-p271:32:32-p272:64:64-i64:64-i128:128-f80:128-n8:16:32:64-S128"
target triple = "x86_64-pc-linux-gnu"

%struct.URLContext = type { ptr, ptr, ptr, ptr, i32, i32, i32, i32, %struct.AVIOInterruptCB, i64, ptr, ptr, i32 }
%struct.AVIOInterruptCB = type { ptr, ptr }
%struct.FTPContext = type { ptr, ptr, ptr, [1024 x i8], ptr, ptr, i32, i32, ptr, ptr, ptr, ptr, i64, i64, i32, ptr, i32, i32, i32, ptr, ptr, i64, i64, i32, ptr, ptr }

@.str.2 = private unnamed_addr constant [17 x i8] c"FTP open failed\0A\00", align 1
@ftp_restart.rest_codes = internal constant [2 x i32] [i32 350, i32 0], align 4
@.str.22 = private unnamed_addr constant [11 x i8] c"REST %ld\0D\0A\00", align 1
@ftp_file_size.size_codes = internal constant [2 x i32] [i32 213, i32 0], align 4
@.str.23 = private unnamed_addr constant [10 x i8] c"SIZE %s\0D\0A\00", align 1

; Function Attrs: nounwind uwtable
define internal void @ftp_close_data_connection(ptr noundef %0) #0 {
  %2 = alloca ptr, align 8
  store ptr %0, ptr %2, align 8, !tbaa !19
  %3 = load ptr, ptr %2, align 8, !tbaa !19
  %4 = getelementptr inbounds nuw %struct.FTPContext, ptr %3, i32 0, i32 2
  %5 = call i32 @ffurl_closep(ptr noundef %4)
  %6 = load ptr, ptr %2, align 8, !tbaa !19
  %7 = getelementptr inbounds nuw %struct.FTPContext, ptr %6, i32 0, i32 17
  store i32 5, ptr %7, align 4, !tbaa !23
  ret void
}

; Function Attrs: inlinehint nounwind uwtable
define internal i32 @ffurl_write(ptr noundef %0, ptr noundef %1, i32 noundef %2) #3 {
  %4 = alloca ptr, align 8
  %5 = alloca ptr, align 8
  %6 = alloca i32, align 4
  store ptr %0, ptr %4, align 8, !tbaa !4
  store ptr %1, ptr %5, align 8, !tbaa !9
  store i32 %2, ptr %6, align 4, !tbaa !11
  %7 = load ptr, ptr %4, align 8, !tbaa !4
  %8 = load ptr, ptr %5, align 8, !tbaa !9
  %9 = load i32, ptr %6, align 4, !tbaa !11
  %10 = call i32 @ffurl_write2(ptr noundef %7, ptr noundef %8, i32 noundef %9)
  ret i32 %10
}

; Function Attrs: nounwind uwtable
define internal void @ftp_close_both_connections(ptr noundef %0) #0 {
  %2 = alloca ptr, align 8
  store ptr %0, ptr %2, align 8, !tbaa !19
  %3 = load ptr, ptr %2, align 8, !tbaa !19
  %4 = getelementptr inbounds nuw %struct.FTPContext, ptr %3, i32 0, i32 1
  %5 = call i32 @ffurl_closep(ptr noundef %4)
  %6 = load ptr, ptr %2, align 8, !tbaa !19
  call void @ftp_close_data_connection(ptr noundef %6)
  ret void
}

; Function Attrs: nounwind uwtable
define internal i32 @ftp_send_command(ptr noundef %0, ptr noundef %1, ptr noundef %2, ptr noundef %3) #0 {
  %5 = alloca i32, align 4
  %6 = alloca ptr, align 8
  %7 = alloca ptr, align 8
  %8 = alloca ptr, align 8
  %9 = alloca ptr, align 8
  %10 = alloca i32, align 4
  %11 = alloca i32, align 4
  store ptr %0, ptr %6, align 8, !tbaa !19
  store ptr %1, ptr %7, align 8, !tbaa !9
  store ptr %2, ptr %8, align 8, !tbaa !64
  store ptr %3, ptr %9, align 8, !tbaa !62
  call void @llvm.lifetime.start.p0(i64 4, ptr %10) #9
  br label %12

12:                                               ; preds = %4
  br label %13

13:                                               ; preds = %12
  br label %14

14:                                               ; preds = %13
  %15 = load ptr, ptr %9, align 8, !tbaa !62
  %16 = icmp ne ptr %15, null
  br i1 %16, label %17, label %19

17:                                               ; preds = %14
  %18 = load ptr, ptr %9, align 8, !tbaa !62
  store ptr null, ptr %18, align 8, !tbaa !9
  br label %19

19:                                               ; preds = %17, %14
  %20 = load ptr, ptr %6, align 8, !tbaa !19
  %21 = getelementptr inbounds nuw %struct.FTPContext, ptr %20, i32 0, i32 1
  %22 = load ptr, ptr %21, align 8, !tbaa !56
  %23 = icmp ne ptr %22, null
  br i1 %23, label %25, label %24

24:                                               ; preds = %19
  store i32 -5, ptr %5, align 4
  store i32 1, ptr %11, align 4
  br label %50

25:                                               ; preds = %19
  %26 = load ptr, ptr %6, align 8, !tbaa !19
  %27 = getelementptr inbounds nuw %struct.FTPContext, ptr %26, i32 0, i32 1
  %28 = load ptr, ptr %27, align 8, !tbaa !56
  %29 = load ptr, ptr %7, align 8, !tbaa !9
  %30 = load ptr, ptr %7, align 8, !tbaa !9
  %31 = call i64 @strlen(ptr noundef %30) #10
  %32 = trunc i64 %31 to i32
  %33 = call i32 @ffurl_write(ptr noundef %28, ptr noundef %29, i32 noundef %32)
  store i32 %33, ptr %10, align 4, !tbaa !11
  %34 = icmp slt i32 %33, 0
  br i1 %34, label %35, label %37

35:                                               ; preds = %25
  %36 = load i32, ptr %10, align 4, !tbaa !11
  store i32 %36, ptr %5, align 4
  store i32 1, ptr %11, align 4
  br label %50

37:                                               ; preds = %25
  %38 = load i32, ptr %10, align 4, !tbaa !11
  %39 = icmp ne i32 %38, 0
  br i1 %39, label %41, label %40

40:                                               ; preds = %37
  store i32 -1, ptr %5, align 4
  store i32 1, ptr %11, align 4
  br label %50

41:                                               ; preds = %37
  %42 = load ptr, ptr %8, align 8, !tbaa !64
  %43 = icmp ne ptr %42, null
  br i1 %43, label %44, label %49

44:                                               ; preds = %41
  %45 = load ptr, ptr %6, align 8, !tbaa !19
  %46 = load ptr, ptr %9, align 8, !tbaa !62
  %47 = load ptr, ptr %8, align 8, !tbaa !64
  %48 = call i32 @ftp_status(ptr noundef %45, ptr noundef %46, ptr noundef %47)
  store i32 %48, ptr %5, align 4
  store i32 1, ptr %11, align 4
  br label %50

49:                                               ; preds = %41
  store i32 0, ptr %5, align 4
  store i32 1, ptr %11, align 4
  br label %50

50:                                               ; preds = %49, %44, %40, %35, %24
  call void @llvm.lifetime.end.p0(i64 4, ptr %10) #9
  %51 = load i32, ptr %5, align 4
  ret i32 %51
}

; Function Attrs: nounwind uwtable
define internal i32 @ftp_close(ptr noundef %0) #0 {
  %2 = alloca ptr, align 8
  %3 = alloca ptr, align 8
  store ptr %0, ptr %2, align 8, !tbaa !4
  call void @llvm.lifetime.start.p0(i64 8, ptr %3) #9
  %4 = load ptr, ptr %2, align 8, !tbaa !4
  %5 = getelementptr inbounds nuw %struct.URLContext, ptr %4, i32 0, i32 2
  %6 = load ptr, ptr %5, align 8, !tbaa !13
  store ptr %6, ptr %3, align 8, !tbaa !19
  br label %7

7:                                                ; preds = %1
  br label %8

8:                                                ; preds = %7
  br label %9

9:                                                ; preds = %8
  %10 = load ptr, ptr %3, align 8, !tbaa !19
  call void @ftp_close_both_connections(ptr noundef %10)
  %11 = load ptr, ptr %3, align 8, !tbaa !19
  %12 = getelementptr inbounds nuw %struct.FTPContext, ptr %11, i32 0, i32 9
  call void @av_freep(ptr noundef %12)
  %13 = load ptr, ptr %3, align 8, !tbaa !19
  %14 = getelementptr inbounds nuw %struct.FTPContext, ptr %13, i32 0, i32 10
  call void @av_freep(ptr noundef %14)
  %15 = load ptr, ptr %3, align 8, !tbaa !19
  %16 = getelementptr inbounds nuw %struct.FTPContext, ptr %15, i32 0, i32 8
  call void @av_freep(ptr noundef %16)
  %17 = load ptr, ptr %3, align 8, !tbaa !19
  %18 = getelementptr inbounds nuw %struct.FTPContext, ptr %17, i32 0, i32 11
  call void @av_freep(ptr noundef %18)
  %19 = load ptr, ptr %3, align 8, !tbaa !19
  %20 = getelementptr inbounds nuw %struct.FTPContext, ptr %19, i32 0, i32 19
  call void @av_freep(ptr noundef %20)
  call void @llvm.lifetime.end.p0(i64 8, ptr %3) #9
  ret i32 0
}

; Function Attrs: nounwind uwtable
define internal i32 @ftp_file_size(ptr noundef %0) #0 {
  %2 = alloca i32, align 4
  %3 = alloca ptr, align 8
  %4 = alloca [1024 x i8], align 16
  %5 = alloca ptr, align 8
  %6 = alloca i32, align 4
  %7 = alloca i32, align 4
  store ptr %0, ptr %3, align 8, !tbaa !19
  call void @llvm.lifetime.start.p0(i64 1024, ptr %4) #9
  call void @llvm.lifetime.start.p0(i64 8, ptr %5) #9
  store ptr null, ptr %5, align 8, !tbaa !9
  call void @llvm.lifetime.start.p0(i64 4, ptr %6) #9
  %8 = getelementptr inbounds [1024 x i8], ptr %4, i64 0, i64 0
  %9 = load ptr, ptr %3, align 8, !tbaa !19
  %10 = getelementptr inbounds nuw %struct.FTPContext, ptr %9, i32 0, i32 11
  %11 = load ptr, ptr %10, align 8, !tbaa !44
  %12 = call i32 (ptr, i64, ptr, ...) @snprintf(ptr noundef %8, i64 noundef 1024, ptr noundef @.str.23, ptr noundef %11) #9
  store i32 %12, ptr %6, align 4, !tbaa !11
  %13 = load i32, ptr %6, align 4, !tbaa !11
  %14 = sext i32 %13 to i64
  %15 = icmp uge i64 %14, 1024
  br i1 %15, label %16, label %17

16:                                               ; preds = %1
  store i32 -38, ptr %2, align 4
  store i32 1, ptr %7, align 4
  br label %41

17:                                               ; preds = %1
  %18 = load ptr, ptr %3, align 8, !tbaa !19
  %19 = getelementptr inbounds [1024 x i8], ptr %4, i64 0, i64 0
  %20 = call i32 @ftp_send_command(ptr noundef %18, ptr noundef %19, ptr noundef @ftp_file_size.size_codes, ptr noundef %5)
  %21 = icmp eq i32 %20, 213
  br i1 %21, label %22, label %35

22:                                               ; preds = %17
  %23 = load ptr, ptr %5, align 8, !tbaa !9
  %24 = icmp ne ptr %23, null
  br i1 %24, label %25, label %35

25:                                               ; preds = %22
  %26 = load ptr, ptr %5, align 8, !tbaa !9
  %27 = call i64 @strlen(ptr noundef %26) #10
  %28 = icmp ugt i64 %27, 4
  br i1 %28, label %29, label %35

29:                                               ; preds = %25
  %30 = load ptr, ptr %5, align 8, !tbaa !9
  %31 = getelementptr inbounds i8, ptr %30, i64 4
  %32 = call i64 @strtoll(ptr noundef %31, ptr noundef null, i32 noundef 10) #9
  %33 = load ptr, ptr %3, align 8, !tbaa !19
  %34 = getelementptr inbounds nuw %struct.FTPContext, ptr %33, i32 0, i32 12
  store i64 %32, ptr %34, align 8, !tbaa !26
  br label %39

35:                                               ; preds = %25, %22, %17
  %36 = load ptr, ptr %3, align 8, !tbaa !19
  %37 = getelementptr inbounds nuw %struct.FTPContext, ptr %36, i32 0, i32 12
  store i64 -1, ptr %37, align 8, !tbaa !26
  %38 = load ptr, ptr %5, align 8, !tbaa !9
  call void @av_free(ptr noundef %38)
  store i32 -5, ptr %2, align 4
  store i32 1, ptr %7, align 4
  br label %41

39:                                               ; preds = %29
  %40 = load ptr, ptr %5, align 8, !tbaa !9
  call void @av_free(ptr noundef %40)
  store i32 0, ptr %2, align 4
  store i32 1, ptr %7, align 4
  br label %41

41:                                               ; preds = %39, %35, %16
  call void @llvm.lifetime.end.p0(i64 4, ptr %6) #9
  call void @llvm.lifetime.end.p0(i64 8, ptr %5) #9
  call void @llvm.lifetime.end.p0(i64 1024, ptr %4) #9
  %42 = load i32, ptr %2, align 4
  ret i32 %42
}

; Function Attrs: nounwind uwtable
define internal i32 @ftp_restart(ptr noundef %0, i64 noundef %1) #0 {
  %3 = alloca i32, align 4
  %4 = alloca ptr, align 8
  %5 = alloca i64, align 8
  %6 = alloca [1024 x i8], align 16
  %7 = alloca i32, align 4
  store ptr %0, ptr %4, align 8, !tbaa !19
  store i64 %1, ptr %5, align 8, !tbaa !27
  call void @llvm.lifetime.start.p0(i64 1024, ptr %6) #9
  %8 = getelementptr inbounds [1024 x i8], ptr %6, i64 0, i64 0
  %9 = load i64, ptr %5, align 8, !tbaa !27
  %10 = call i32 (ptr, i64, ptr, ...) @snprintf(ptr noundef %8, i64 noundef 1024, ptr noundef @.str.22, i64 noundef %9) #9
  %11 = load ptr, ptr %4, align 8, !tbaa !19
  %12 = getelementptr inbounds [1024 x i8], ptr %6, i64 0, i64 0
  %13 = call i32 @ftp_send_command(ptr noundef %11, ptr noundef %12, ptr noundef @ftp_restart.rest_codes, ptr noundef null)
  %14 = icmp ne i32 %13, 350
  br i1 %14, label %15, label %16

15:                                               ; preds = %2
  store i32 -5, ptr %3, align 4
  store i32 1, ptr %7, align 4
  br label %17

16:                                               ; preds = %2
  store i32 0, ptr %3, align 4
  store i32 1, ptr %7, align 4
  br label %17

17:                                               ; preds = %16, %15
  call void @llvm.lifetime.end.p0(i64 1024, ptr %6) #9
  %18 = load i32, ptr %3, align 4
  ret i32 %18
}

; Function Attrs: nounwind uwtable
define internal i32 @ftp_open(ptr noundef %0, ptr noundef %1, i32 noundef %2) #0 {
  %4 = alloca i32, align 4
  %5 = alloca ptr, align 8
  %6 = alloca ptr, align 8
  %7 = alloca i32, align 4
  %8 = alloca ptr, align 8
  %9 = alloca i32, align 4
  %10 = alloca i32, align 4
  store ptr %0, ptr %5, align 8, !tbaa !4
  store ptr %1, ptr %6, align 8, !tbaa !9
  store i32 %2, ptr %7, align 4, !tbaa !11
  call void @llvm.lifetime.start.p0(i64 8, ptr %8) #9
  %11 = load ptr, ptr %5, align 8, !tbaa !4
  %12 = getelementptr inbounds nuw %struct.URLContext, ptr %11, i32 0, i32 2
  %13 = load ptr, ptr %12, align 8, !tbaa !13
  store ptr %13, ptr %8, align 8, !tbaa !19
  call void @llvm.lifetime.start.p0(i64 4, ptr %9) #9
  br label %14

14:                                               ; preds = %3
  br label %15

15:                                               ; preds = %14
  br label %16

16:                                               ; preds = %15
  %17 = load ptr, ptr %5, align 8, !tbaa !4
  %18 = load ptr, ptr %6, align 8, !tbaa !9
  %19 = call i32 @ftp_connect(ptr noundef %17, ptr noundef %18)
  store i32 %19, ptr %9, align 4, !tbaa !11
  %20 = icmp slt i32 %19, 0
  br i1 %20, label %21, label %22

21:                                               ; preds = %16
  br label %45

22:                                               ; preds = %16
  %23 = load ptr, ptr %8, align 8, !tbaa !19
  %24 = call i32 @ftp_restart(ptr noundef %23, i64 noundef 0)
  %25 = icmp slt i32 %24, 0
  br i1 %25, label %26, label %29

26:                                               ; preds = %22
  %27 = load ptr, ptr %5, align 8, !tbaa !4
  %28 = getelementptr inbounds nuw %struct.URLContext, ptr %27, i32 0, i32 6
  store i32 1, ptr %28, align 8, !tbaa !20
  br label %44

29:                                               ; preds = %22
  %30 = load ptr, ptr %8, align 8, !tbaa !19
  %31 = call i32 @ftp_file_size(ptr noundef %30)
  %32 = load ptr, ptr %8, align 8, !tbaa !19
  %33 = getelementptr inbounds nuw %struct.FTPContext, ptr %32, i32 0, i32 16
  %34 = load i32, ptr %33, align 8, !tbaa !21
  %35 = icmp ne i32 %34, 1
  br i1 %35, label %36, label %43

36:                                               ; preds = %29
  %37 = load i32, ptr %7, align 4, !tbaa !11
  %38 = and i32 %37, 2
  %39 = icmp ne i32 %38, 0
  br i1 %39, label %40, label %43

40:                                               ; preds = %36
  %41 = load ptr, ptr %5, align 8, !tbaa !4
  %42 = getelementptr inbounds nuw %struct.URLContext, ptr %41, i32 0, i32 6
  store i32 1, ptr %42, align 8, !tbaa !20
  br label %43

43:                                               ; preds = %40, %36, %29
  br label %44

44:                                               ; preds = %43, %26
  store i32 0, ptr %4, align 4
  store i32 1, ptr %10, align 4
  br label %50

45:                                               ; preds = %21
  %46 = load ptr, ptr %5, align 8, !tbaa !4
  call void (ptr, i32, ptr, ...) @av_log(ptr noundef %46, i32 noundef 16, ptr noundef @.str.2)
  %47 = load ptr, ptr %5, align 8, !tbaa !4
  %48 = call i32 @ftp_close(ptr noundef %47)
  %49 = load i32, ptr %9, align 4, !tbaa !11
  store i32 %49, ptr %4, align 4
  store i32 1, ptr %10, align 4
  br label %50

50:                                               ; preds = %45, %44
  call void @llvm.lifetime.end.p0(i64 4, ptr %9) #9
  call void @llvm.lifetime.end.p0(i64 8, ptr %8) #9
  %51 = load i32, ptr %4, align 4
  ret i32 %51
}