; Function Attrs: nounwind uwtable
define internal range(i32 -2147483648, 1) i32 @ftp_open(ptr noundef %0, ptr noundef %1, i32 noundef %2) #0 {
  %4 = alloca [1024 x i8], align 16
  %5 = alloca ptr, align 8
  %6 = alloca [1024 x i8], align 16
  %7 = getelementptr inbounds nuw i8, ptr %0, i64 16
  %8 = load ptr, ptr %7, align 8, !tbaa !4
  %9 = tail call fastcc i32 @ftp_connect(ptr noundef %0, ptr noundef %1)
  %10 = icmp slt i32 %9, 0
  br i1 %10, label %52, label %11

11:                                               ; preds = %3
  call void @llvm.lifetime.start.p0(i64 1024, ptr nonnull %6) #10
  %12 = call i32 (ptr, i64, ptr, ...) @snprintf(ptr noundef nonnull dereferenceable(1) %6, i64 noundef 1024, ptr noundef nonnull @.str.22, i64 noundef 0) #10
  %13 = getelementptr inbounds nuw i8, ptr %8, i64 8
  %14 = load ptr, ptr %13, align 8, !tbaa !15
  %.not16.i.i = icmp eq ptr %14, null
  br i1 %.not16.i.i, label %20, label %15

15:                                               ; preds = %11
  %16 = call i64 @strlen(ptr noundef nonnull dereferenceable(1) %6) #11
  %17 = trunc i64 %16 to i32
  %18 = call i32 @ffurl_write2(ptr noundef nonnull %14, ptr noundef nonnull %6, i32 noundef %17) #10
  %or.cond.i = icmp slt i32 %18, 1
  br i1 %or.cond.i, label %20, label %ftp_send_command.exit.i

ftp_send_command.exit.i:                          ; preds = %15
  %19 = call fastcc i32 @ftp_status(ptr noundef nonnull %8, ptr noundef null, ptr noundef nonnull @ftp_restart.rest_codes)
  %.fr.i = freeze i32 %19
  %.not.i = icmp eq i32 %.fr.i, 350
  br i1 %.not.i, label %22, label %20

20:                                               ; preds = %11, %15, %ftp_send_command.exit.i
  call void @llvm.lifetime.end.p0(i64 1024, ptr nonnull %6) #10
  %21 = getelementptr inbounds nuw i8, ptr %0, i64 40
  store i32 1, ptr %21, align 8, !tbaa !18
  br label %64

22:                                               ; preds = %ftp_send_command.exit.i
  call void @llvm.lifetime.end.p0(i64 1024, ptr nonnull %6) #10
  call void @llvm.lifetime.start.p0(i64 1024, ptr nonnull %4) #10
  call void @llvm.lifetime.start.p0(i64 8, ptr nonnull %5) #10
  %23 = getelementptr inbounds nuw i8, ptr %8, i64 1096
  %24 = load ptr, ptr %23, align 8, !tbaa !19
  %25 = call i32 (ptr, i64, ptr, ...) @snprintf(ptr noundef nonnull dereferenceable(1) %4, i64 noundef 1024, ptr noundef nonnull @.str.23, ptr noundef %24) #10
  %26 = icmp ugt i32 %25, 1023
  br i1 %26, label %ftp_file_size.exit, label %27

27:                                               ; preds = %22
  store ptr null, ptr %5, align 8, !tbaa !20
  %28 = load ptr, ptr %13, align 8, !tbaa !15
  %.not16.i.i14 = icmp eq ptr %28, null
  br i1 %.not16.i.i14, label %ftp_send_command.exit.thread.i, label %29

29:                                               ; preds = %27
  %30 = call i64 @strlen(ptr noundef nonnull dereferenceable(1) %4) #11
  %31 = trunc i64 %30 to i32
  %32 = call i32 @ffurl_write2(ptr noundef nonnull %28, ptr noundef nonnull %4, i32 noundef %31) #10
  %or.cond9.i = icmp slt i32 %32, 1
  br i1 %or.cond9.i, label %ftp_send_command.exit.thread.i, label %ftp_send_command.exit.i15

ftp_send_command.exit.i15:                        ; preds = %29
  %33 = call fastcc i32 @ftp_status(ptr noundef nonnull %8, ptr noundef nonnull %5, ptr noundef nonnull @ftp_file_size.size_codes)
  %34 = icmp eq i32 %33, 213
  %35 = load ptr, ptr %5, align 8
  %36 = icmp ne ptr %35, null
  %or.cond.i16 = select i1 %34, i1 %36, i1 false
  br i1 %or.cond.i16, label %37, label %ftp_send_command.exit.thread.i

37:                                               ; preds = %ftp_send_command.exit.i15
  %38 = call i64 @strlen(ptr noundef nonnull dereferenceable(1) %35) #11
  %39 = icmp ugt i64 %38, 4
  br i1 %39, label %40, label %ftp_send_command.exit.thread.i

40:                                               ; preds = %37
  %41 = getelementptr inbounds nuw i8, ptr %35, i64 4
  %42 = call i64 @strtoll(ptr noundef nonnull captures(none) %41, ptr noundef null, i32 noundef 10) #10
  %43 = getelementptr inbounds nuw i8, ptr %8, i64 1104
  store i64 %42, ptr %43, align 8, !tbaa !21
  %44 = load ptr, ptr %5, align 8, !tbaa !20
  br label %.sink.split.i

ftp_send_command.exit.thread.i:                   ; preds = %37, %ftp_send_command.exit.i15, %29, %27
  %45 = phi ptr [ %35, %37 ], [ %35, %ftp_send_command.exit.i15 ], [ null, %27 ], [ null, %29 ]
  %46 = getelementptr inbounds nuw i8, ptr %8, i64 1104
  store i64 -1, ptr %46, align 8, !tbaa !21
  br label %.sink.split.i

.sink.split.i:                                    ; preds = %ftp_send_command.exit.thread.i, %40
  %.sink.i = phi ptr [ %44, %40 ], [ %45, %ftp_send_command.exit.thread.i ]
  call void @av_free(ptr noundef %.sink.i) #10
  br label %ftp_file_size.exit

ftp_file_size.exit:                               ; preds = %22, %.sink.split.i
  call void @llvm.lifetime.end.p0(i64 8, ptr nonnull %5) #10
  call void @llvm.lifetime.end.p0(i64 1024, ptr nonnull %4) #10
  %47 = getelementptr inbounds nuw i8, ptr %8, i64 1136
  %48 = load i32, ptr %47, align 8, !tbaa !22
  %.not = icmp eq i32 %48, 1
  %49 = and i32 %2, 2
  %.not13 = icmp eq i32 %49, 0
  %or.cond = or i1 %.not13, %.not
  br i1 %or.cond, label %64, label %50

50:                                               ; preds = %ftp_file_size.exit
  %51 = getelementptr inbounds nuw i8, ptr %0, i64 40
  store i32 1, ptr %51, align 8, !tbaa !18
  br label %64

52:                                               ; preds = %3
  tail call void (ptr, i32, ptr, ...) @av_log(ptr noundef nonnull %0, i32 noundef 16, ptr noundef nonnull @.str.2) #10
  %53 = load ptr, ptr %7, align 8, !tbaa !4
  %54 = getelementptr inbounds nuw i8, ptr %53, i64 8
  %55 = tail call i32 @ffurl_closep(ptr noundef nonnull %54) #10
  %56 = getelementptr inbounds nuw i8, ptr %53, i64 16
  %57 = tail call i32 @ffurl_closep(ptr noundef nonnull %56) #10
  %58 = getelementptr inbounds nuw i8, ptr %53, i64 1140
  store i32 5, ptr %58, align 4, !tbaa !23
  %59 = getelementptr inbounds nuw i8, ptr %53, i64 1080
  tail call void @av_freep(ptr noundef nonnull %59) #10
  %60 = getelementptr inbounds nuw i8, ptr %53, i64 1088
  tail call void @av_freep(ptr noundef nonnull %60) #10
  %61 = getelementptr inbounds nuw i8, ptr %53, i64 1072
  tail call void @av_freep(ptr noundef nonnull %61) #10
  %62 = getelementptr inbounds nuw i8, ptr %53, i64 1096
  tail call void @av_freep(ptr noundef nonnull %62) #10
  %63 = getelementptr inbounds nuw i8, ptr %53, i64 1152
  tail call void @av_freep(ptr noundef nonnull %63) #10
  br label %64

64:                                               ; preds = %20, %50, %ftp_file_size.exit, %52
  ret i32 %9
}